; Function Attrs: nounwind sspstrong uwtable
define internal fastcc ptr @fd_trans_target_to_host_data(i32 noundef %fd) unnamed_addr #2 {
entry:
  %cmp = icmp slt i32 %fd, 0
  br i1 %cmp, label %return, label %if.end

if.end:                                           ; preds = %entry
  %0 = load atomic i64, ptr @qemu_mutex_lock_func monotonic, align 8
  %1 = inttoptr i64 %0 to ptr
  tail call void %1(ptr noundef nonnull @target_fd_trans_lock, ptr noundef nonnull @.str.630, i32 noundef 122) #27
  %2 = load i32, ptr @target_fd_max, align 4
  %cmp2 = icmp ult i32 %fd, %2
  br i1 %cmp2, label %land.lhs.true, label %glib_autoptr_cleanup_QemuLockable.exit

land.lhs.true:                                    ; preds = %if.end
  %3 = load ptr, ptr @target_fd_trans, align 8
  %idxprom = zext nneg i32 %fd to i64
  %arrayidx = getelementptr ptr, ptr %3, i64 %idxprom
  %4 = load ptr, ptr %arrayidx, align 8
  %tobool.not = icmp eq ptr %4, null
  br i1 %tobool.not, label %glib_autoptr_cleanup_QemuLockable.exit, label %if.then3

if.then3:                                         ; preds = %land.lhs.true
  %target_to_host_data = getelementptr inbounds nuw i8, ptr %4, i64 8
  %5 = load ptr, ptr %target_to_host_data, align 8
  br label %glib_autoptr_cleanup_QemuLockable.exit

glib_autoptr_cleanup_QemuLockable.exit:           ; preds = %if.end, %land.lhs.true, %if.then3
  %retval.1 = phi ptr [ %5, %if.then3 ], [ null, %land.lhs.true ], [ null, %if.end ]
  tail call void @qemu_mutex_unlock_impl(ptr noundef nonnull @target_fd_trans_lock, ptr noundef nonnull @.str.630, i32 noundef 132) #27
  br label %return

return:                                           ; preds = %entry, %glib_autoptr_cleanup_QemuLockable.exit
  %retval.0 = phi ptr [ %retval.1, %glib_autoptr_cleanup_QemuLockable.exit ], [ null, %entry ]
  ret ptr %retval.0
}